; Function Attrs: mustprogress nofree norecurse nosync nounwind willreturn memory(read, inaccessiblemem: none) uwtable
define dso_local noundef i64 @_ZNK10cmDebugger27cmDebuggerBreakpointManager18GetBreakpointCountEv(ptr nocapture noundef nonnull readonly align 8 dereferenceable(224) %0) local_unnamed_addr #7 align 2 {
  %2 = getelementptr inbounds i8, ptr %0, i64 64
  %.sroa.05.08 = load ptr, ptr %2, align 8
  %.not9 = icmp eq ptr %.sroa.05.08, null
  br i1 %.not9, label %._crit_edge, label %.lr.ph

.lr.ph:                                           ; preds = %1, %.lr.ph
  %.sroa.05.011 = phi ptr [ %.sroa.05.0, %.lr.ph ], [ %.sroa.05.08, %1 ]
  %.010 = phi i64 [ %11, %.lr.ph ], [ 0, %1 ]
  %3 = getelementptr inbounds i8, ptr %.sroa.05.011, i64 40
  %4 = getelementptr inbounds i8, ptr %.sroa.05.011, i64 48
  %5 = load ptr, ptr %4, align 8
  %6 = load ptr, ptr %3, align 8
  %7 = ptrtoint ptr %5 to i64
  %8 = ptrtoint ptr %6 to i64
  %9 = sub i64 %7, %8
  %10 = sdiv exact i64 %9, 24
  %11 = add i64 %10, %.010
  %.sroa.05.0 = load ptr, ptr %.sroa.05.011, align 8
  %.not = icmp eq ptr %.sroa.05.0, null
  br i1 %.not, label %._crit_edge, label %.lr.ph

._crit_edge:                                      ; preds = %.lr.ph, %1
  %.0.lcssa = phi i64 [ 0, %1 ], [ %11, %.lr.ph ]
  ret i64 %.0.lcssa
}